target datalayout = "e-m:e-p270:32:32-p271:32:32-p272:64:64-i64:64-i128:128-f80:128-n8:16:32:64-S128"
target triple = "x86_64-pc-linux-gnu"

%struct.AVCodecContext = type { ptr, i32, i32, ptr, i32, i32, ptr, ptr, ptr, i64, i32, i32, ptr, i32, %struct.AVRational, %struct.AVRational, %struct.AVRational, i32, i32, i32, i32, i32, %struct.AVRational, i32, i32, i32, i32, i32, i32, i32, i32, i32, i32, i32, ptr, ptr, i32, float, float, float, float, float, float, float, float, float, i32, i32, i32, i32, i32, i32, i32, i32, i32, i32, i32, i32, ptr, ptr, ptr, i32, i32, i32, i32, i32, i32, i32, i32, i32, i32, %struct.AVChannelLayout, i32, i32, i32, i32, i32, i32, i32, i32, ptr, i32, i32, i32, float, float, i32, i32, i32, i32, i32, ptr, i64, i64, float, float, i32, i32, ptr, ptr, i32, i32, i32, i32, i32, ptr, ptr, ptr, ptr, i32, i32, [8 x i64], i32, i32, i32, i32, i32, i32, i32, ptr, ptr, i32, i32, i32, i32, i32, i32, i32, i32, i32, i32, ptr, ptr, i32, i32, ptr, ptr, ptr, ptr, i32, i32, i64, i32, i32, i64, ptr, i64, ptr, i32, ptr, i32 }
%struct.AVRational = type { i32, i32 }
%struct.AVChannelLayout = type { i32, i32, %union.anon.0, ptr }
%union.anon.0 = type { i64 }
%struct.MotionPixelsContext = type { ptr, ptr, %struct.BswapDSPContext, ptr, i32, i32, i32, i32, [16 x %struct.HuffCode], %struct.VLC, ptr, ptr, [3 x i8], ptr, i32 }
%struct.BswapDSPContext = type { ptr, ptr }
%struct.HuffCode = type { i8, i8 }
%struct.VLC = type { i32, ptr, i32, i32 }

@.str.2 = private unnamed_addr constant [21 x i8] c"extradata too small\0A\00", align 1
@mp_decode_init.init_static_once = internal global i32 0, align 4
@ff_log2_tab = external constant [256 x i8], align 16

; Function Attrs: alwaysinline nounwind willreturn memory(none) uwtable
define internal i32 @ff_log2_c(i32 noundef %0) #4 {
  %2 = alloca i32, align 4
  %3 = alloca i32, align 4
  store i32 %0, ptr %2, align 4, !tbaa !32
  call void @llvm.lifetime.start.p0(i64 4, ptr %3) #9
  store i32 0, ptr %3, align 4, !tbaa !32
  %4 = load i32, ptr %2, align 4, !tbaa !32
  %5 = and i32 %4, -65536
  %6 = icmp ne i32 %5, 0
  br i1 %6, label %7, label %12

7:                                                ; preds = %1
  %8 = load i32, ptr %2, align 4, !tbaa !32
  %9 = lshr i32 %8, 16
  store i32 %9, ptr %2, align 4, !tbaa !32
  %10 = load i32, ptr %3, align 4, !tbaa !32
  %11 = add nsw i32 %10, 16
  store i32 %11, ptr %3, align 4, !tbaa !32
  br label %12

12:                                               ; preds = %7, %1
  %13 = load i32, ptr %2, align 4, !tbaa !32
  %14 = and i32 %13, 65280
  %15 = icmp ne i32 %14, 0
  br i1 %15, label %16, label %21

16:                                               ; preds = %12
  %17 = load i32, ptr %2, align 4, !tbaa !32
  %18 = lshr i32 %17, 8
  store i32 %18, ptr %2, align 4, !tbaa !32
  %19 = load i32, ptr %3, align 4, !tbaa !32
  %20 = add nsw i32 %19, 8
  store i32 %20, ptr %3, align 4, !tbaa !32
  br label %21

21:                                               ; preds = %16, %12
  %22 = load i32, ptr %2, align 4, !tbaa !32
  %23 = zext i32 %22 to i64
  %24 = getelementptr inbounds nuw [256 x i8], ptr @ff_log2_tab, i64 0, i64 %23
  %25 = load i8, ptr %24, align 1, !tbaa !59
  %26 = zext i8 %25 to i32
  %27 = load i32, ptr %3, align 4, !tbaa !32
  %28 = add nsw i32 %27, %26
  store i32 %28, ptr %3, align 4, !tbaa !32
  %29 = load i32, ptr %3, align 4, !tbaa !32
  call void @llvm.lifetime.end.p0(i64 4, ptr %3) #9
  ret i32 %29
}

; Function Attrs: cold nounwind optsize uwtable
define internal i32 @mp_decode_init(ptr noundef %0) #0 {
  %2 = alloca i32, align 4
  %3 = alloca ptr, align 8
  %4 = alloca ptr, align 8
  %5 = alloca i32, align 4
  %6 = alloca i32, align 4
  %7 = alloca i32, align 4
  store ptr %0, ptr %3, align 8, !tbaa !4
  call void @llvm.lifetime.start.p0(i64 8, ptr %4) #9
  %8 = load ptr, ptr %3, align 8, !tbaa !4
  %9 = getelementptr inbounds nuw %struct.AVCodecContext, ptr %8, i32 0, i32 6
  %10 = load ptr, ptr %9, align 8, !tbaa !9
  store ptr %10, ptr %4, align 8, !tbaa !29
  call void @llvm.lifetime.start.p0(i64 4, ptr %5) #9
  %11 = load ptr, ptr %3, align 8, !tbaa !4
  %12 = getelementptr inbounds nuw %struct.AVCodecContext, ptr %11, i32 0, i32 18
  %13 = load i32, ptr %12, align 8, !tbaa !31
  %14 = add nsw i32 %13, 3
  %15 = and i32 %14, -4
  store i32 %15, ptr %5, align 4, !tbaa !32
  call void @llvm.lifetime.start.p0(i64 4, ptr %6) #9
  %16 = load ptr, ptr %3, align 8, !tbaa !4
  %17 = getelementptr inbounds nuw %struct.AVCodecContext, ptr %16, i32 0, i32 19
  %18 = load i32, ptr %17, align 4, !tbaa !33
  %19 = add nsw i32 %18, 3
  %20 = and i32 %19, -4
  store i32 %20, ptr %6, align 4, !tbaa !32
  %21 = load ptr, ptr %3, align 8, !tbaa !4
  %22 = getelementptr inbounds nuw %struct.AVCodecContext, ptr %21, i32 0, i32 13
  %23 = load i32, ptr %22, align 8, !tbaa !34
  %24 = icmp slt i32 %23, 2
  br i1 %24, label %25, label %27

25:                                               ; preds = %1
  %26 = load ptr, ptr %3, align 8, !tbaa !4
  call void (ptr, i32, ptr, ...) @av_log(ptr noundef %26, i32 noundef 16, ptr noundef @.str.2)
  store i32 -1094995529, ptr %2, align 4
  store i32 1, ptr %7, align 4
  br label %98

27:                                               ; preds = %1
  %28 = load ptr, ptr %3, align 8, !tbaa !4
  %29 = load ptr, ptr %4, align 8, !tbaa !29
  %30 = getelementptr inbounds nuw %struct.MotionPixelsContext, ptr %29, i32 0, i32 0
  store ptr %28, ptr %30, align 8, !tbaa !35
  %31 = load ptr, ptr %4, align 8, !tbaa !29
  %32 = getelementptr inbounds nuw %struct.MotionPixelsContext, ptr %31, i32 0, i32 2
  call void @ff_bswapdsp_init(ptr noundef %32)
  %33 = load ptr, ptr %3, align 8, !tbaa !4
  %34 = getelementptr inbounds nuw %struct.AVCodecContext, ptr %33, i32 0, i32 18
  %35 = load i32, ptr %34, align 8, !tbaa !31
  %36 = sext i32 %35 to i64
  %37 = load i32, ptr %6, align 4, !tbaa !32
  %38 = sext i32 %37 to i64
  %39 = call noalias ptr @av_calloc(i64 noundef %36, i64 noundef %38)
  %40 = load ptr, ptr %4, align 8, !tbaa !29
  %41 = getelementptr inbounds nuw %struct.MotionPixelsContext, ptr %40, i32 0, i32 3
  store ptr %39, ptr %41, align 8, !tbaa !42
  %42 = load ptr, ptr %3, align 8, !tbaa !4
  %43 = getelementptr inbounds nuw %struct.AVCodecContext, ptr %42, i32 0, i32 18
  %44 = load i32, ptr %43, align 8, !tbaa !31
  %45 = load ptr, ptr %3, align 8, !tbaa !4
  %46 = getelementptr inbounds nuw %struct.AVCodecContext, ptr %45, i32 0, i32 19
  %47 = load i32, ptr %46, align 4, !tbaa !33
  %48 = mul nsw i32 %44, %47
  %49 = call i32 @ff_log2_c(i32 noundef %48) #10
  %50 = add nsw i32 %49, 1
  %51 = load ptr, ptr %4, align 8, !tbaa !29
  %52 = getelementptr inbounds nuw %struct.MotionPixelsContext, ptr %51, i32 0, i32 4
  store i32 %50, ptr %52, align 8, !tbaa !43
  %53 = load ptr, ptr %3, align 8, !tbaa !4
  %54 = getelementptr inbounds nuw %struct.AVCodecContext, ptr %53, i32 0, i32 19
  %55 = load i32, ptr %54, align 4, !tbaa !33
  %56 = sext i32 %55 to i64
  %57 = call noalias ptr @av_calloc(i64 noundef %56, i64 noundef 3)
  %58 = load ptr, ptr %4, align 8, !tbaa !29
  %59 = getelementptr inbounds nuw %struct.MotionPixelsContext, ptr %58, i32 0, i32 10
  store ptr %57, ptr %59, align 8, !tbaa !44
  %60 = load i32, ptr %6, align 4, !tbaa !32
  %61 = sdiv i32 %60, 4
  %62 = sext i32 %61 to i64
  %63 = load i32, ptr %5, align 4, !tbaa !32
  %64 = sdiv i32 %63, 4
  %65 = sext i32 %64 to i64
  %66 = mul i64 %65, 3
  %67 = call noalias ptr @av_calloc(i64 noundef %62, i64 noundef %66)
  %68 = load ptr, ptr %4, align 8, !tbaa !29
  %69 = getelementptr inbounds nuw %struct.MotionPixelsContext, ptr %68, i32 0, i32 11
  store ptr %67, ptr %69, align 8, !tbaa !45
  %70 = load ptr, ptr %4, align 8, !tbaa !29
  %71 = getelementptr inbounds nuw %struct.MotionPixelsContext, ptr %70, i32 0, i32 3
  %72 = load ptr, ptr %71, align 8, !tbaa !42
  %73 = icmp ne ptr %72, null
  br i1 %73, label %74, label %84

74:                                               ; preds = %27
  %75 = load ptr, ptr %4, align 8, !tbaa !29
  %76 = getelementptr inbounds nuw %struct.MotionPixelsContext, ptr %75, i32 0, i32 10
  %77 = load ptr, ptr %76, align 8, !tbaa !44
  %78 = icmp ne ptr %77, null
  br i1 %78, label %79, label %84

79:                                               ; preds = %74
  %80 = load ptr, ptr %4, align 8, !tbaa !29
  %81 = getelementptr inbounds nuw %struct.MotionPixelsContext, ptr %80, i32 0, i32 11
  %82 = load ptr, ptr %81, align 8, !tbaa !45
  %83 = icmp ne ptr %82, null
  br i1 %83, label %85, label %84

84:                                               ; preds = %79, %74, %27
  store i32 -12, ptr %2, align 4
  store i32 1, ptr %7, align 4
  br label %98

85:                                               ; preds = %79
  %86 = load ptr, ptr %3, align 8, !tbaa !4
  %87 = getelementptr inbounds nuw %struct.AVCodecContext, ptr %86, i32 0, i32 23
  store i32 39, ptr %87, align 8, !tbaa !46
  %88 = call ptr @av_frame_alloc()
  %89 = load ptr, ptr %4, align 8, !tbaa !29
  %90 = getelementptr inbounds nuw %struct.MotionPixelsContext, ptr %89, i32 0, i32 1
  store ptr %88, ptr %90, align 8, !tbaa !47
  %91 = load ptr, ptr %4, align 8, !tbaa !29
  %92 = getelementptr inbounds nuw %struct.MotionPixelsContext, ptr %91, i32 0, i32 1
  %93 = load ptr, ptr %92, align 8, !tbaa !47
  %94 = icmp ne ptr %93, null
  br i1 %94, label %96, label %95

95:                                               ; preds = %85
  store i32 -12, ptr %2, align 4
  store i32 1, ptr %7, align 4
  br label %98

96:                                               ; preds = %85
  %97 = call i32 @pthread_once(ptr noundef @mp_decode_init.init_static_once, ptr noundef @motionpixels_tableinit)
  store i32 0, ptr %2, align 4
  store i32 1, ptr %7, align 4
  br label %98

98:                                               ; preds = %96, %95, %84, %25
  call void @llvm.lifetime.end.p0(i64 4, ptr %6) #9
  call void @llvm.lifetime.end.p0(i64 4, ptr %5) #9
  call void @llvm.lifetime.end.p0(i64 8, ptr %4) #9
  %99 = load i32, ptr %2, align 4
  ret i32 %99
}