; Function Attrs: cold nounwind optsize uwtable
define internal range(i32 -1094995529, 1) i32 @mp_decode_init(ptr noundef %0) #0 {
  %2 = getelementptr inbounds nuw i8, ptr %0, i64 32
  %3 = load ptr, ptr %2, align 8, !tbaa !4
  %4 = getelementptr inbounds nuw i8, ptr %0, i64 80
  %5 = load i32, ptr %4, align 8, !tbaa !27
  %6 = icmp slt i32 %5, 2
  br i1 %6, label %7, label %8

7:                                                ; preds = %1
  tail call void (ptr, i32, ptr, ...) @av_log(ptr noundef nonnull %0, i32 noundef 16, ptr noundef nonnull @.str.2) #11
  br label %53

8:                                                ; preds = %1
  %9 = getelementptr inbounds nuw i8, ptr %0, i64 116
  %10 = load i32, ptr %9, align 4, !tbaa !28
  %11 = add nsw i32 %10, 3
  %12 = and i32 %11, -4
  %13 = getelementptr inbounds nuw i8, ptr %0, i64 112
  %14 = load i32, ptr %13, align 8, !tbaa !29
  %15 = add nsw i32 %14, 3
  store ptr %0, ptr %3, align 8, !tbaa !30
  %16 = getelementptr inbounds nuw i8, ptr %3, i64 16
  tail call void @ff_bswapdsp_init(ptr noundef nonnull %16) #11
  %17 = load i32, ptr %13, align 8, !tbaa !29
  %18 = sext i32 %17 to i64
  %19 = sext i32 %12 to i64
  %20 = tail call noalias ptr @av_calloc(i64 noundef %18, i64 noundef %19) #11
  %21 = getelementptr inbounds nuw i8, ptr %3, i64 32
  store ptr %20, ptr %21, align 8, !tbaa !38
  %22 = load i32, ptr %13, align 8, !tbaa !29
  %23 = load i32, ptr %9, align 4, !tbaa !28
  %24 = mul nsw i32 %23, %22
  %.not.i = icmp ult i32 %24, 65536
  %25 = lshr i32 %24, 16
  %spec.select.i = select i1 %.not.i, i32 %24, i32 %25
  %spec.select12.i = select i1 %.not.i, i32 0, i32 16
  %.not11.i = icmp samesign ult i32 %spec.select.i, 256
  %26 = lshr i32 %spec.select.i, 8
  %27 = or disjoint i32 %spec.select12.i, 8
  %.110.i = select i1 %.not11.i, i32 %spec.select.i, i32 %26
  %.1.i = select i1 %.not11.i, i32 %spec.select12.i, i32 %27
  %28 = zext nneg i32 %.110.i to i64
  %29 = getelementptr inbounds nuw [256 x i8], ptr @ff_log2_tab, i64 0, i64 %28
  %30 = load i8, ptr %29, align 1, !tbaa !39
  %31 = zext i8 %30 to i32
  %32 = add nuw nsw i32 %31, 1
  %33 = add nuw nsw i32 %32, %.1.i
  %34 = getelementptr inbounds nuw i8, ptr %3, i64 40
  store i32 %33, ptr %34, align 8, !tbaa !40
  %35 = sext i32 %23 to i64
  %36 = tail call noalias ptr @av_calloc(i64 noundef %35, i64 noundef 3) #11
  %37 = getelementptr inbounds nuw i8, ptr %3, i64 112
  store ptr %36, ptr %37, align 8, !tbaa !41
  %38 = ashr i32 %11, 2
  %39 = sext i32 %38 to i64
  %40 = ashr i32 %15, 2
  %narrow = mul nsw i32 %40, 3
  %41 = sext i32 %narrow to i64
  %42 = tail call noalias ptr @av_calloc(i64 noundef %39, i64 noundef %41) #11
  %43 = getelementptr inbounds nuw i8, ptr %3, i64 120
  store ptr %42, ptr %43, align 8, !tbaa !42
  %44 = load ptr, ptr %21, align 8, !tbaa !38
  %.not = icmp eq ptr %44, null
  br i1 %.not, label %53, label %45

45:                                               ; preds = %8
  %46 = load ptr, ptr %37, align 8, !tbaa !41
  %.not25 = icmp eq ptr %46, null
  %.not26 = icmp eq ptr %42, null
  %or.cond = select i1 %.not25, i1 true, i1 %.not26
  br i1 %or.cond, label %53, label %47

47:                                               ; preds = %45
  %48 = getelementptr inbounds nuw i8, ptr %0, i64 136
  store i32 39, ptr %48, align 8, !tbaa !43
  %49 = tail call ptr @av_frame_alloc() #11
  %50 = getelementptr inbounds nuw i8, ptr %3, i64 8
  store ptr %49, ptr %50, align 8, !tbaa !44
  %.not27 = icmp eq ptr %49, null
  br i1 %.not27, label %53, label %51

51:                                               ; preds = %47
  %52 = tail call i32 @pthread_once(ptr noundef nonnull @mp_decode_init.init_static_once, ptr noundef nonnull @motionpixels_tableinit) #11
  br label %53

53:                                               ; preds = %47, %8, %45, %51, %7
  %.0 = phi i32 [ -1094995529, %7 ], [ 0, %51 ], [ -12, %45 ], [ -12, %8 ], [ -12, %47 ]
  ret i32 %.0
}